; Function Attrs: mustprogress uwtable
define void @_ZN6google8protobuf6Option8CopyFromERKS1_(ptr noundef nonnull align 8 dereferenceable(40) %this, ptr noundef nonnull readonly align 8 dereferenceable(40) %from) local_unnamed_addr #3 align 2 {
entry:
  %cmp = icmp eq ptr %from, %this
  br i1 %cmp, label %return, label %if.end

if.end:                                           ; preds = %entry
  %0 = getelementptr inbounds i8, ptr %this, i64 16
  %name_.i = getelementptr inbounds i8, ptr %this, i64 24
  tail call void @_ZN6google8protobuf8internal14ArenaStringPtr12ClearToEmptyEv(ptr noundef nonnull align 8 dereferenceable(8) %name_.i)
  %1 = load i32, ptr %0, align 8
  %and.i = and i32 %1, 1
  %tobool.not.i = icmp eq i32 %and.i, 0
  br i1 %tobool.not.i, label %if.end.i, label %if.then.i

if.then.i:                                        ; preds = %if.end
  %value_.i = getelementptr inbounds i8, ptr %this, i64 32
  %2 = load ptr, ptr %value_.i, align 8
  tail call void @_ZN6google8protobuf3Any5ClearEv(ptr noundef nonnull align 8 dereferenceable(56) %2)
  br label %if.end.i

if.end.i:                                         ; preds = %if.then.i, %if.end
  store i32 0, ptr %0, align 8
  %_internal_metadata_.i = getelementptr inbounds i8, ptr %this, i64 8
  %3 = load i64, ptr %_internal_metadata_.i, align 8
  %and.i.i = and i64 %3, 1
  %tobool.i.not.i = icmp eq i64 %and.i.i, 0
  br i1 %tobool.i.not.i, label %_ZN6google8protobuf6Option5ClearEv.exit, label %if.then.i.i

if.then.i.i:                                      ; preds = %if.end.i
  tail call void @_ZN6google8protobuf8internal16InternalMetadata7DoClearINS0_15UnknownFieldSetEEEvv(ptr noundef nonnull align 8 dereferenceable(8) %_internal_metadata_.i)
  br label %_ZN6google8protobuf6Option5ClearEv.exit

_ZN6google8protobuf6Option5ClearEv.exit:          ; preds = %if.end.i, %if.then.i.i
  tail call void @_ZN6google8protobuf6Option9MergeImplERNS0_11MessageLiteERKS2_(ptr noundef nonnull align 8 dereferenceable(16) %this, ptr noundef nonnull align 8 dereferenceable(16) %from)
  br label %return

return:                                           ; preds = %entry, %_ZN6google8protobuf6Option5ClearEv.exit
  ret void
}